
output.elf:     file format elf32-littleriscv


Disassembly of section .text:

00000000 <_start>:
   0:	00012137          	lui	sp,0x12
   4:	0ac000ef          	jal	b0 <main>

00000008 <trap_loop>:
   8:	0000006f          	j	8 <trap_loop>

0000000c <memset>:
   c:	0ff5f593          	zext.b	a1,a1
  10:	00c50733          	add	a4,a0,a2
  14:	00050793          	mv	a5,a0
  18:	00060863          	beqz	a2,28 <memset+0x1c>
  1c:	00178793          	addi	a5,a5,1
  20:	feb78fa3          	sb	a1,-1(a5)
  24:	fef71ce3          	bne	a4,a5,1c <memset+0x10>
  28:	00008067          	ret

0000002c <read_hardware_cycles>:
  2c:	000057b7          	lui	a5,0x5
  30:	000056b7          	lui	a3,0x5
  34:	00478793          	addi	a5,a5,4 # 5004 <input_image+0x1d4>
  38:	0007a583          	lw	a1,0(a5)
  3c:	0006a503          	lw	a0,0(a3) # 5000 <input_image+0x1d0>
  40:	0007a703          	lw	a4,0(a5)
  44:	fee59ae3          	bne	a1,a4,38 <read_hardware_cycles+0xc>
  48:	00008067          	ret

0000004c <dma_transfer_2d>:
  4c:	000048b7          	lui	a7,0x4
  50:	01088893          	addi	a7,a7,16 # 4010 <fc1_weight+0x19e0>
  54:	0008a803          	lw	a6,0(a7)
  58:	00187813          	andi	a6,a6,1
  5c:	fe080ce3          	beqz	a6,54 <dma_transfer_2d+0x8>
  60:	00004837          	lui	a6,0x4
  64:	00a82023          	sw	a0,0(a6) # 4000 <fc1_weight+0x19d0>
  68:	00004337          	lui	t1,0x4
  6c:	00b32223          	sw	a1,4(t1) # 4004 <fc1_weight+0x19d4>
  70:	000048b7          	lui	a7,0x4
  74:	00c8a423          	sw	a2,8(a7) # 4008 <fc1_weight+0x19d8>
  78:	00e82a23          	sw	a4,20(a6)
  7c:	00004537          	lui	a0,0x4
  80:	00f52c23          	sw	a5,24(a0) # 4018 <fc1_weight+0x19e8>
  84:	000045b7          	lui	a1,0x4
  88:	00004637          	lui	a2,0x4
  8c:	00004737          	lui	a4,0x4
  90:	00d5ae23          	sw	a3,28(a1) # 401c <fc1_weight+0x19ec>
  94:	00100793          	li	a5,1
  98:	00f62623          	sw	a5,12(a2) # 400c <fc1_weight+0x19dc>
  9c:	01070713          	addi	a4,a4,16 # 4010 <fc1_weight+0x19e0>
  a0:	00072783          	lw	a5,0(a4)
  a4:	0017f793          	andi	a5,a5,1
  a8:	fe078ce3          	beqz	a5,a0 <dma_transfer_2d+0x54>
  ac:	00008067          	ret

000000b0 <main>:
  b0:	f7010113          	addi	sp,sp,-144 # 11f70 <__bss_end+0xa11c>
  b4:	000057b7          	lui	a5,0x5
  b8:	08812623          	sw	s0,140(sp)
  bc:	08912423          	sw	s1,136(sp)
  c0:	09212223          	sw	s2,132(sp)
  c4:	09312023          	sw	s3,128(sp)
  c8:	07412e23          	sw	s4,124(sp)
  cc:	07512c23          	sw	s5,120(sp)
  d0:	07612a23          	sw	s6,116(sp)
  d4:	07712823          	sw	s7,112(sp)
  d8:	07812623          	sw	s8,108(sp)
  dc:	07912423          	sw	s9,104(sp)
  e0:	07a12223          	sw	s10,100(sp)
  e4:	07b12023          	sw	s11,96(sp)
  e8:	00005737          	lui	a4,0x5
  ec:	00478793          	addi	a5,a5,4 # 5004 <input_image+0x1d4>
  f0:	0007a603          	lw	a2,0(a5)
  f4:	00072e03          	lw	t3,0(a4) # 5000 <input_image+0x1d0>
  f8:	0007a683          	lw	a3,0(a5)
  fc:	fed61ae3          	bne	a2,a3,f0 <main+0x40>
 100:	000077b7          	lui	a5,0x7
 104:	00001737          	lui	a4,0x1
 108:	8c878613          	addi	a2,a5,-1848 # 68c8 <padded_in>
 10c:	d8c70713          	addi	a4,a4,-628 # d8c <main+0xcdc>
 110:	8c878c13          	addi	s8,a5,-1848
 114:	00e60733          	add	a4,a2,a4
 118:	8c878793          	addi	a5,a5,-1848
 11c:	0007a023          	sw	zero,0(a5)
 120:	00478793          	addi	a5,a5,4
 124:	fee79ce3          	bne	a5,a4,11c <main+0x6c>
 128:	00001f37          	lui	t5,0x1
 12c:	daff0f13          	addi	t5,t5,-593 # daf <main+0xcff>
 130:	000046b7          	lui	a3,0x4
 134:	00004eb7          	lui	t4,0x4
 138:	00004337          	lui	t1,0x4
 13c:	000048b7          	lui	a7,0x4
 140:	00004837          	lui	a6,0x4
 144:	00004537          	lui	a0,0x4
 148:	000045b7          	lui	a1,0x4
 14c:	00005737          	lui	a4,0x5
 150:	000077b7          	lui	a5,0x7
 154:	e3070713          	addi	a4,a4,-464 # 4e30 <input_image>
 158:	8eb78793          	addi	a5,a5,-1813 # 68eb <padded_in+0x23>
 15c:	01e60633          	add	a2,a2,t5
 160:	000044b7          	lui	s1,0x4
 164:	01068693          	addi	a3,a3,16 # 4010 <fc1_weight+0x19e0>
 168:	004e8e93          	addi	t4,t4,4 # 4004 <fc1_weight+0x19d4>
 16c:	00830313          	addi	t1,t1,8 # 4008 <fc1_weight+0x19d8>
 170:	00800413          	li	s0,8
 174:	01488893          	addi	a7,a7,20 # 4014 <fc1_weight+0x19e4>
 178:	02000f93          	li	t6,32
 17c:	01880813          	addi	a6,a6,24 # 4018 <fc1_weight+0x19e8>
 180:	02200393          	li	t2,34
 184:	01c50513          	addi	a0,a0,28 # 401c <fc1_weight+0x19ec>
 188:	00c58593          	addi	a1,a1,12 # 400c <fc1_weight+0x19dc>
 18c:	00100293          	li	t0,1
 190:	0006af03          	lw	t5,0(a3)
 194:	001f7f13          	andi	t5,t5,1
 198:	fe0f0ce3          	beqz	t5,190 <main+0xe0>
 19c:	00e4a023          	sw	a4,0(s1) # 4000 <fc1_weight+0x19d0>
 1a0:	00fea023          	sw	a5,0(t4)
 1a4:	00832023          	sw	s0,0(t1)
 1a8:	01f8a023          	sw	t6,0(a7)
 1ac:	00782023          	sw	t2,0(a6)
 1b0:	01f52023          	sw	t6,0(a0)
 1b4:	0055a023          	sw	t0,0(a1)
 1b8:	0006af03          	lw	t5,0(a3)
 1bc:	001f7f13          	andi	t5,t5,1
 1c0:	fe0f0ce3          	beqz	t5,1b8 <main+0x108>
 1c4:	48478793          	addi	a5,a5,1156
 1c8:	40070713          	addi	a4,a4,1024
 1cc:	fcc792e3          	bne	a5,a2,190 <main+0xe0>
 1d0:	00002737          	lui	a4,0x2
 1d4:	000077b7          	lui	a5,0x7
 1d8:	00070b13          	mv	s6,a4
 1dc:	00070713          	mv	a4,a4
 1e0:	01070313          	addi	t1,a4,16 # 2010 <conv1_weight>
 1e4:	65478713          	addi	a4,a5,1620 # 7654 <l1_pool_out>
 1e8:	000067b7          	lui	a5,0x6
 1ec:	000066b7          	lui	a3,0x6
 1f0:	e3078493          	addi	s1,a5,-464 # 5e30 <local_patch>
 1f4:	000087b7          	lui	a5,0x8
 1f8:	a3068913          	addi	s2,a3,-1488 # 5a30 <l2_pool_out>
 1fc:	00000613          	li	a2,0
 200:	e5478793          	addi	a5,a5,-428 # 7e54 <__bss_end>
 204:	00f12a23          	sw	a5,20(sp)
 208:	41b90b93          	addi	s7,s2,1051
 20c:	00400d13          	li	s10,4
 210:	00070a93          	mv	s5,a4
 214:	000b0993          	mv	s3,s6
 218:	00060d93          	mv	s11,a2
 21c:	01c12c23          	sw	t3,24(sp)
 220:	00098403          	lb	s0,0(s3)
 224:	01032e83          	lw	t4,16(t1)
 228:	01c32783          	lw	a5,28(t1)
 22c:	00032383          	lw	t2,0(t1)
 230:	00432283          	lw	t0,4(t1)
 234:	00832f83          	lw	t6,8(t1)
 238:	00c32f03          	lw	t5,12(t1)
 23c:	01432b03          	lw	s6,20(t1)
 240:	01832c83          	lw	s9,24(t1)
 244:	000a8e13          	mv	t3,s5
 248:	01512e23          	sw	s5,28(sp)
 24c:	03312023          	sw	s3,32(sp)
 250:	00000a13          	li	s4,0
 254:	00812223          	sw	s0,4(sp)
 258:	000d8813          	mv	a6,s11
 25c:	000e8993          	mv	s3,t4
 260:	00078a93          	mv	s5,a5
 264:	02612223          	sw	t1,36(sp)
 268:	000e0d93          	mv	s11,t3
 26c:	00000e93          	li	t4,0
 270:	01c12823          	sw	t3,16(sp)
 274:	01412023          	sw	s4,0(sp)
 278:	05c10e13          	addi	t3,sp,92
 27c:	00000313          	li	t1,0
 280:	01012423          	sw	a6,8(sp)
 284:	01b12623          	sw	s11,12(sp)
 288:	00012783          	lw	a5,0(sp)
 28c:	40135713          	srai	a4,t1,0x1
 290:	00f70733          	add	a4,a4,a5
 294:	00471793          	slli	a5,a4,0x4
 298:	00e787b3          	add	a5,a5,a4
 29c:	00137713          	andi	a4,t1,1
 2a0:	01d70733          	add	a4,a4,t4
 2a4:	00179793          	slli	a5,a5,0x1
 2a8:	00e787b3          	add	a5,a5,a4
 2ac:	00fc07b3          	add	a5,s8,a5
 2b0:	00048713          	mv	a4,s1
 2b4:	0007cd83          	lbu	s11,0(a5)
 2b8:	0017ca03          	lbu	s4,1(a5)
 2bc:	0027c403          	lbu	s0,2(a5)
 2c0:	0227c883          	lbu	a7,34(a5)
 2c4:	0237c803          	lbu	a6,35(a5)
 2c8:	0247c503          	lbu	a0,36(a5)
 2cc:	0447c583          	lbu	a1,68(a5)
 2d0:	0457c603          	lbu	a2,69(a5)
 2d4:	0467c683          	lbu	a3,70(a5)
 2d8:	01b70023          	sb	s11,0(a4)
 2dc:	014700a3          	sb	s4,1(a4)
 2e0:	00870123          	sb	s0,2(a4)
 2e4:	011701a3          	sb	a7,3(a4)
 2e8:	01070223          	sb	a6,4(a4)
 2ec:	00a702a3          	sb	a0,5(a4)
 2f0:	00b70323          	sb	a1,6(a4)
 2f4:	00c703a3          	sb	a2,7(a4)
 2f8:	00d70423          	sb	a3,8(a4)
 2fc:	00970713          	addi	a4,a4,9
 300:	48478793          	addi	a5,a5,1156
 304:	faeb98e3          	bne	s7,a4,2b4 <main+0x204>
 308:	40092703          	lw	a4,1024(s2)
 30c:	40492783          	lw	a5,1028(s2)
 310:	40892803          	lw	a6,1032(s2)
 314:	40c92883          	lw	a7,1036(s2)
 318:	40090da3          	sb	zero,1051(s2)
 31c:	40092e23          	sw	zero,1052(s2)
 320:	00038513          	mv	a0,t2
 324:	00028593          	mv	a1,t0
 328:	000f8613          	mv	a2,t6
 32c:	000f0693          	mv	a3,t5
 330:	00e506eb          	.insn	4, 0x00e506eb
 334:	00412603          	lw	a2,4(sp)
 338:	41092703          	lw	a4,1040(s2)
 33c:	41492783          	lw	a5,1044(s2)
 340:	00d60db3          	add	s11,a2,a3
 344:	41892803          	lw	a6,1048(s2)
 348:	00000893          	li	a7,0
 34c:	00098513          	mv	a0,s3
 350:	000b0593          	mv	a1,s6
 354:	000c8613          	mv	a2,s9
 358:	000a8693          	mv	a3,s5
 35c:	00e507eb          	.insn	4, 0x00e507eb
 360:	00fd8db3          	add	s11,s11,a5
 364:	000d8dab          	.insn	4, 0x000d8dab
 368:	01be0023          	sb	s11,0(t3)
 36c:	00130313          	addi	t1,t1,1
 370:	001e0e13          	addi	t3,t3,1
 374:	f1a31ae3          	bne	t1,s10,288 <main+0x1d8>
 378:	00812803          	lw	a6,8(sp)
 37c:	00c12d83          	lw	s11,12(sp)
 380:	05c12783          	lw	a5,92(sp)
 384:	000787cb          	.insn	4, 0x000787cb
 388:	01879793          	slli	a5,a5,0x18
 38c:	4187d793          	srai	a5,a5,0x18
 390:	00fd8023          	sb	a5,0(s11)
 394:	00f80833          	add	a6,a6,a5
 398:	002e8e93          	addi	t4,t4,2
 39c:	02000793          	li	a5,32
 3a0:	001d8d93          	addi	s11,s11,1
 3a4:	ecfe9ae3          	bne	t4,a5,278 <main+0x1c8>
 3a8:	00012a03          	lw	s4,0(sp)
 3ac:	01012e03          	lw	t3,16(sp)
 3b0:	002a0a13          	addi	s4,s4,2
 3b4:	010e0e13          	addi	t3,t3,16
 3b8:	ebda18e3          	bne	s4,t4,268 <main+0x1b8>
 3bc:	01c12a83          	lw	s5,28(sp)
 3c0:	02012983          	lw	s3,32(sp)
 3c4:	02412303          	lw	t1,36(sp)
 3c8:	01412783          	lw	a5,20(sp)
 3cc:	100a8a93          	addi	s5,s5,256
 3d0:	00080d93          	mv	s11,a6
 3d4:	00198993          	addi	s3,s3,1
 3d8:	02030313          	addi	t1,t1,32
 3dc:	e4fa92e3          	bne	s5,a5,220 <main+0x170>
 3e0:	000067b7          	lui	a5,0x6
 3e4:	00001737          	lui	a4,0x1
 3e8:	ea878593          	addi	a1,a5,-344 # 5ea8 <padded_l1_out>
 3ec:	000036b7          	lui	a3,0x3
 3f0:	a2070713          	addi	a4,a4,-1504 # a20 <main+0x970>
 3f4:	01812e03          	lw	t3,24(sp)
 3f8:	ea878993          	addi	s3,a5,-344
 3fc:	00e58733          	add	a4,a1,a4
 400:	ea878793          	addi	a5,a5,-344
 404:	0106a223          	sw	a6,4(a3) # 3004 <fc1_weight+0x9d4>
 408:	0007a023          	sw	zero,0(a5)
 40c:	00478793          	addi	a5,a5,4
 410:	fef71ce3          	bne	a4,a5,408 <main+0x358>
 414:	000076b7          	lui	a3,0x7
 418:	000017b7          	lui	a5,0x1
 41c:	a3378793          	addi	a5,a5,-1485 # a33 <main+0x983>
 420:	00004737          	lui	a4,0x4
 424:	00004f37          	lui	t5,0x4
 428:	00004eb7          	lui	t4,0x4
 42c:	00004337          	lui	t1,0x4
 430:	000048b7          	lui	a7,0x4
 434:	00004837          	lui	a6,0x4
 438:	00004537          	lui	a0,0x4
 43c:	65468613          	addi	a2,a3,1620 # 7654 <l1_pool_out>
 440:	000066b7          	lui	a3,0x6
 444:	ebb68693          	addi	a3,a3,-325 # 5ebb <padded_l1_out+0x13>
 448:	00f585b3          	add	a1,a1,a5
 44c:	00004a37          	lui	s4,0x4
 450:	01070713          	addi	a4,a4,16 # 4010 <fc1_weight+0x19e0>
 454:	004f0f13          	addi	t5,t5,4 # 4004 <fc1_weight+0x19d4>
 458:	008e8e93          	addi	t4,t4,8 # 4008 <fc1_weight+0x19d8>
 45c:	00400413          	li	s0,4
 460:	01430313          	addi	t1,t1,20 # 4014 <fc1_weight+0x19e4>
 464:	01000f93          	li	t6,16
 468:	01888893          	addi	a7,a7,24 # 4018 <fc1_weight+0x19e8>
 46c:	01200393          	li	t2,18
 470:	01c80813          	addi	a6,a6,28 # 401c <fc1_weight+0x19ec>
 474:	00c50513          	addi	a0,a0,12 # 400c <fc1_weight+0x19dc>
 478:	00100293          	li	t0,1
 47c:	00072783          	lw	a5,0(a4)
 480:	0017f793          	andi	a5,a5,1
 484:	fe078ce3          	beqz	a5,47c <main+0x3cc>
 488:	00ca2023          	sw	a2,0(s4) # 4000 <fc1_weight+0x19d0>
 48c:	00df2023          	sw	a3,0(t5)
 490:	008ea023          	sw	s0,0(t4)
 494:	01f32023          	sw	t6,0(t1)
 498:	0078a023          	sw	t2,0(a7)
 49c:	01f82023          	sw	t6,0(a6)
 4a0:	00552023          	sw	t0,0(a0)
 4a4:	00072783          	lw	a5,0(a4)
 4a8:	0017f793          	andi	a5,a5,1
 4ac:	fe078ce3          	beqz	a5,4a4 <main+0x3f4>
 4b0:	14468693          	addi	a3,a3,324
 4b4:	10060613          	addi	a2,a2,256
 4b8:	fcd592e3          	bne	a1,a3,47c <main+0x3cc>
 4bc:	00002737          	lui	a4,0x2
 4c0:	00070793          	mv	a5,a4
 4c4:	00070713          	mv	a4,a4
 4c8:	12070d93          	addi	s11,a4,288 # 2120 <conv2_weight>
 4cc:	00000693          	li	a3,0
 4d0:	00006737          	lui	a4,0x6
 4d4:	000d8313          	mv	t1,s11
 4d8:	11078793          	addi	a5,a5,272
 4dc:	e7870f13          	addi	t5,a4,-392 # 5e78 <local_patch+0x48>
 4e0:	00400e93          	li	t4,4
 4e4:	00090c13          	mv	s8,s2
 4e8:	05c12023          	sw	t3,64(sp)
 4ec:	00068d93          	mv	s11,a3
 4f0:	03032683          	lw	a3,48(t1)
 4f4:	02032703          	lw	a4,32(t1)
 4f8:	01032f83          	lw	t6,16(t1)
 4fc:	00d12a23          	sw	a3,20(sp)
 500:	03432683          	lw	a3,52(t1)
 504:	02e12223          	sw	a4,36(sp)
 508:	02432703          	lw	a4,36(t1)
 50c:	00d12c23          	sw	a3,24(sp)
 510:	03832683          	lw	a3,56(t1)
 514:	02e12423          	sw	a4,40(sp)
 518:	02832703          	lw	a4,40(t1)
 51c:	00d12e23          	sw	a3,28(sp)
 520:	03c32683          	lw	a3,60(t1)
 524:	00078a83          	lb	s5,0(a5)
 528:	02e12623          	sw	a4,44(sp)
 52c:	02d12023          	sw	a3,32(sp)
 530:	04032683          	lw	a3,64(t1)
 534:	02c32703          	lw	a4,44(t1)
 538:	00032a03          	lw	s4,0(t1)
 53c:	00d12223          	sw	a3,4(sp)
 540:	04432683          	lw	a3,68(t1)
 544:	00432403          	lw	s0,4(t1)
 548:	00832383          	lw	t2,8(t1)
 54c:	00d12423          	sw	a3,8(sp)
 550:	04832683          	lw	a3,72(t1)
 554:	00c32283          	lw	t0,12(t1)
 558:	01432e03          	lw	t3,20(t1)
 55c:	00d12623          	sw	a3,12(sp)
 560:	04c32683          	lw	a3,76(t1)
 564:	01832c83          	lw	s9,24(t1)
 568:	01c32d03          	lw	s10,28(t1)
 56c:	00d12823          	sw	a3,16(sp)
 570:	000c0693          	mv	a3,s8
 574:	05812223          	sw	s8,68(sp)
 578:	00000b93          	li	s7,0
 57c:	04612623          	sw	t1,76(sp)
 580:	03512823          	sw	s5,48(sp)
 584:	000d8813          	mv	a6,s11
 588:	00070c13          	mv	s8,a4
 58c:	000f8b13          	mv	s6,t6
 590:	04f12423          	sw	a5,72(sp)
 594:	00068313          	mv	t1,a3
 598:	00030d93          	mv	s11,t1
 59c:	00000f93          	li	t6,0
 5a0:	02612e23          	sw	t1,60(sp)
 5a4:	00000313          	li	t1,0
 5a8:	01f12023          	sw	t6,0(sp)
 5ac:	03b12a23          	sw	s11,52(sp)
 5b0:	03012c23          	sw	a6,56(sp)
 5b4:	40135793          	srai	a5,t1,0x1
 5b8:	017787b3          	add	a5,a5,s7
 5bc:	00012683          	lw	a3,0(sp)
 5c0:	00379713          	slli	a4,a5,0x3
 5c4:	00f70733          	add	a4,a4,a5
 5c8:	00137793          	andi	a5,t1,1
 5cc:	00d787b3          	add	a5,a5,a3
 5d0:	00171713          	slli	a4,a4,0x1
 5d4:	00f70733          	add	a4,a4,a5
 5d8:	00e98733          	add	a4,s3,a4
 5dc:	00048793          	mv	a5,s1
 5e0:	00074d83          	lbu	s11,0(a4)
 5e4:	00174a83          	lbu	s5,1(a4)
 5e8:	00274f83          	lbu	t6,2(a4)
 5ec:	01274883          	lbu	a7,18(a4)
 5f0:	01374803          	lbu	a6,19(a4)
 5f4:	01474503          	lbu	a0,20(a4)
 5f8:	02474583          	lbu	a1,36(a4)
 5fc:	02574603          	lbu	a2,37(a4)
 600:	02674683          	lbu	a3,38(a4)
 604:	01b78023          	sb	s11,0(a5)
 608:	015780a3          	sb	s5,1(a5)
 60c:	01f78123          	sb	t6,2(a5)
 610:	011781a3          	sb	a7,3(a5)
 614:	01078223          	sb	a6,4(a5)
 618:	00a782a3          	sb	a0,5(a5)
 61c:	00b78323          	sb	a1,6(a5)
 620:	00c783a3          	sb	a2,7(a5)
 624:	00d78423          	sb	a3,8(a5)
 628:	00978793          	addi	a5,a5,9
 62c:	14470713          	addi	a4,a4,324
 630:	faff18e3          	bne	t5,a5,5e0 <main+0x530>
 634:	40092703          	lw	a4,1024(s2)
 638:	40492783          	lw	a5,1028(s2)
 63c:	40892803          	lw	a6,1032(s2)
 640:	40c92883          	lw	a7,1036(s2)
 644:	44092423          	sw	zero,1096(s2)
 648:	44092623          	sw	zero,1100(s2)
 64c:	000a0513          	mv	a0,s4
 650:	00040593          	mv	a1,s0
 654:	00038613          	mv	a2,t2
 658:	00028693          	mv	a3,t0
 65c:	00e506eb          	.insn	4, 0x00e506eb
 660:	03012603          	lw	a2,48(sp)
 664:	41092703          	lw	a4,1040(s2)
 668:	41492783          	lw	a5,1044(s2)
 66c:	00d60db3          	add	s11,a2,a3
 670:	41892803          	lw	a6,1048(s2)
 674:	41c92883          	lw	a7,1052(s2)
 678:	000b0513          	mv	a0,s6
 67c:	000e0593          	mv	a1,t3
 680:	000c8613          	mv	a2,s9
 684:	000d0693          	mv	a3,s10
 688:	00e506eb          	.insn	4, 0x00e506eb
 68c:	00dd8db3          	add	s11,s11,a3
 690:	42092703          	lw	a4,1056(s2)
 694:	42492783          	lw	a5,1060(s2)
 698:	42892803          	lw	a6,1064(s2)
 69c:	42c92883          	lw	a7,1068(s2)
 6a0:	02412503          	lw	a0,36(sp)
 6a4:	02812583          	lw	a1,40(sp)
 6a8:	02c12603          	lw	a2,44(sp)
 6ac:	000c0693          	mv	a3,s8
 6b0:	00e506eb          	.insn	4, 0x00e506eb
 6b4:	00dd8db3          	add	s11,s11,a3
 6b8:	43092703          	lw	a4,1072(s2)
 6bc:	43492783          	lw	a5,1076(s2)
 6c0:	43892803          	lw	a6,1080(s2)
 6c4:	43c92883          	lw	a7,1084(s2)
 6c8:	01412503          	lw	a0,20(sp)
 6cc:	01812583          	lw	a1,24(sp)
 6d0:	01c12603          	lw	a2,28(sp)
 6d4:	02012683          	lw	a3,32(sp)
 6d8:	00e506eb          	.insn	4, 0x00e506eb
 6dc:	00000813          	li	a6,0
 6e0:	00dd8db3          	add	s11,s11,a3
 6e4:	44092703          	lw	a4,1088(s2)
 6e8:	44492783          	lw	a5,1092(s2)
 6ec:	00412503          	lw	a0,4(sp)
 6f0:	00812583          	lw	a1,8(sp)
 6f4:	00c12603          	lw	a2,12(sp)
 6f8:	01012683          	lw	a3,16(sp)
 6fc:	00000893          	li	a7,0
 700:	00e507eb          	.insn	4, 0x00e507eb
 704:	00fd8db3          	add	s11,s11,a5
 708:	000d8dab          	.insn	4, 0x000d8dab
 70c:	05c10793          	addi	a5,sp,92
 710:	006787b3          	add	a5,a5,t1
 714:	01b78023          	sb	s11,0(a5)
 718:	00130313          	addi	t1,t1,1
 71c:	e9d31ce3          	bne	t1,t4,5b4 <main+0x504>
 720:	00012f83          	lw	t6,0(sp)
 724:	03412d83          	lw	s11,52(sp)
 728:	03812803          	lw	a6,56(sp)
 72c:	05c12783          	lw	a5,92(sp)
 730:	000787cb          	.insn	4, 0x000787cb
 734:	01879793          	slli	a5,a5,0x18
 738:	4187d793          	srai	a5,a5,0x18
 73c:	00fd8023          	sb	a5,0(s11)
 740:	00f80833          	add	a6,a6,a5
 744:	002f8f93          	addi	t6,t6,2
 748:	01000793          	li	a5,16
 74c:	001d8d93          	addi	s11,s11,1
 750:	e4ff9ae3          	bne	t6,a5,5a4 <main+0x4f4>
 754:	03c12303          	lw	t1,60(sp)
 758:	002b8b93          	addi	s7,s7,2
 75c:	00830313          	addi	t1,t1,8
 760:	e3fb9ce3          	bne	s7,t6,598 <main+0x4e8>
 764:	04412c03          	lw	s8,68(sp)
 768:	04812783          	lw	a5,72(sp)
 76c:	04c12303          	lw	t1,76(sp)
 770:	040c0c13          	addi	s8,s8,64
 774:	00080d93          	mv	s11,a6
 778:	00178793          	addi	a5,a5,1
 77c:	05030313          	addi	t1,t1,80
 780:	d69c18e3          	bne	s8,s1,4f0 <main+0x440>
 784:	00002737          	lui	a4,0x2
 788:	000037b7          	lui	a5,0x3
 78c:	45090313          	addi	t1,s2,1104
 790:	00070713          	mv	a4,a4
 794:	000022b7          	lui	t0,0x2
 798:	04012e03          	lw	t3,64(sp)
 79c:	62070413          	addi	s0,a4,1568 # 2620 <fc1_bias>
 7a0:	63028293          	addi	t0,t0,1584 # 2630 <fc1_weight>
 7a4:	47490993          	addi	s3,s2,1140
 7a8:	00030393          	mv	t2,t1
 7ac:	0107a423          	sw	a6,8(a5) # 3008 <fc1_weight+0x9d8>
 7b0:	00040a03          	lb	s4,0(s0)
 7b4:	00090e93          	mv	t4,s2
 7b8:	00028f93          	mv	t6,t0
 7bc:	000fa503          	lw	a0,0(t6)
 7c0:	004fa583          	lw	a1,4(t6)
 7c4:	008fa603          	lw	a2,8(t6)
 7c8:	00cfa683          	lw	a3,12(t6)
 7cc:	000ea703          	lw	a4,0(t4)
 7d0:	004ea783          	lw	a5,4(t4)
 7d4:	008ea803          	lw	a6,8(t4)
 7d8:	00cea883          	lw	a7,12(t4)
 7dc:	00e50f6b          	.insn	4, 0x00e50f6b
 7e0:	010fa503          	lw	a0,16(t6)
 7e4:	014fa583          	lw	a1,20(t6)
 7e8:	018fa603          	lw	a2,24(t6)
 7ec:	01cfa683          	lw	a3,28(t6)
 7f0:	010ea703          	lw	a4,16(t4)
 7f4:	014ea783          	lw	a5,20(t4)
 7f8:	018ea803          	lw	a6,24(t4)
 7fc:	01cea883          	lw	a7,28(t4)
 800:	014f0f33          	add	t5,t5,s4
 804:	00e50a6b          	.insn	4, 0x00e50a6b
 808:	020fa503          	lw	a0,32(t6)
 80c:	024fa583          	lw	a1,36(t6)
 810:	028fa603          	lw	a2,40(t6)
 814:	02cfa683          	lw	a3,44(t6)
 818:	020ea703          	lw	a4,32(t4)
 81c:	024ea783          	lw	a5,36(t4)
 820:	028ea803          	lw	a6,40(t4)
 824:	02cea883          	lw	a7,44(t4)
 828:	014f0f33          	add	t5,t5,s4
 82c:	00e50a6b          	.insn	4, 0x00e50a6b
 830:	030fa503          	lw	a0,48(t6)
 834:	034fa583          	lw	a1,52(t6)
 838:	038fa603          	lw	a2,56(t6)
 83c:	03cfa683          	lw	a3,60(t6)
 840:	030ea703          	lw	a4,48(t4)
 844:	034ea783          	lw	a5,52(t4)
 848:	038ea803          	lw	a6,56(t4)
 84c:	03cea883          	lw	a7,60(t4)
 850:	014f0f33          	add	t5,t5,s4
 854:	00e507eb          	.insn	4, 0x00e507eb
 858:	040e8e93          	addi	t4,t4,64
 85c:	00ff0a33          	add	s4,t5,a5
 860:	040f8f93          	addi	t6,t6,64
 864:	f49e9ce3          	bne	t4,s1,7bc <main+0x70c>
 868:	00140413          	addi	s0,s0,1
 86c:	40028293          	addi	t0,t0,1024
 870:	01338863          	beq	t2,s3,880 <main+0x7d0>
 874:	0143a023          	sw	s4,0(t2)
 878:	00438393          	addi	t2,t2,4
 87c:	f35ff06f          	j	7b0 <main+0x700>
 880:	ffffa7b7          	lui	a5,0xffffa
 884:	87c78793          	addi	a5,a5,-1924 # ffff987c <__bss_end+0xffff1a28>
 888:	00fa0f33          	add	t5,s4,a5
 88c:	000057b7          	lui	a5,0x5
 890:	47e92a23          	sw	t5,1140(s2)
 894:	000056b7          	lui	a3,0x5
 898:	00478793          	addi	a5,a5,4 # 5004 <input_image+0x1d4>
 89c:	0007a583          	lw	a1,0(a5)
 8a0:	0006a703          	lw	a4,0(a3) # 5000 <input_image+0x1d0>
 8a4:	0007a603          	lw	a2,0(a5)
 8a8:	fec59ae3          	bne	a1,a2,89c <main+0x7ec>
 8ac:	000037b7          	lui	a5,0x3
 8b0:	41c70733          	sub	a4,a4,t3
 8b4:	000036b7          	lui	a3,0x3
 8b8:	02830613          	addi	a2,t1,40
 8bc:	00c68693          	addi	a3,a3,12 # 300c <fc1_weight+0x9dc>
 8c0:	00e7a823          	sw	a4,16(a5) # 3010 <fc1_weight+0x9e0>
 8c4:	00032783          	lw	a5,0(t1)
 8c8:	00430313          	addi	t1,t1,4
 8cc:	00f6a023          	sw	a5,0(a3)
 8d0:	fec31ae3          	bne	t1,a2,8c4 <main+0x814>
 8d4:	08c12403          	lw	s0,140(sp)
 8d8:	000037b7          	lui	a5,0x3
 8dc:	00100713          	li	a4,1
 8e0:	00e7a023          	sw	a4,0(a5) # 3000 <fc1_weight+0x9d0>
 8e4:	08812483          	lw	s1,136(sp)
 8e8:	08412903          	lw	s2,132(sp)
 8ec:	08012983          	lw	s3,128(sp)
 8f0:	07c12a03          	lw	s4,124(sp)
 8f4:	07812a83          	lw	s5,120(sp)
 8f8:	07412b03          	lw	s6,116(sp)
 8fc:	07012b83          	lw	s7,112(sp)
 900:	06c12c03          	lw	s8,108(sp)
 904:	06812c83          	lw	s9,104(sp)
 908:	06412d03          	lw	s10,100(sp)
 90c:	06012d83          	lw	s11,96(sp)
 910:	00000513          	li	a0,0
 914:	09010113          	addi	sp,sp,144
 918:	00008067          	ret
